; Function Attrs: nounwind sspstrong uwtable
define dso_local void @tcg_gen_movi_i64(ptr noundef %0, i64 noundef %1) local_unnamed_addr #2 {
  %3 = tail call ptr @tcg_constant_i64(i64 noundef %1) #6
  %4 = icmp eq ptr %0, %3
  br i1 %4, label %tcg_gen_mov_i64.exit, label %5

5:                                                ; preds = %2
  %6 = tail call align 8 ptr @llvm.threadlocal.address.p0(ptr align 8 @tcg_ctx)
  %7 = load ptr, ptr %6, align 8
  %8 = ptrtoint ptr %0 to i64
  %9 = getelementptr inbounds nuw i8, ptr %7, i64 %8
  %10 = ptrtoint ptr %9 to i64
  %11 = ptrtoint ptr %3 to i64
  %12 = getelementptr inbounds nuw i8, ptr %7, i64 %11
  %13 = ptrtoint ptr %12 to i64
  %14 = tail call ptr @tcg_gen_op2(i32 noundef 63, i32 noundef 1, i64 noundef %10, i64 noundef %13)
  br label %tcg_gen_mov_i64.exit

tcg_gen_mov_i64.exit:                             ; preds = %2, %5
  ret void
}